target datalayout = "e-m:e-p270:32:32-p271:32:32-p272:64:64-i64:64-i128:128-f80:128-n8:16:32:64-S128"
target triple = "x86_64-pc-linux-gnu"

@.str.14 = private unnamed_addr constant [36 x i8] c"../openssl/test/verify_extra_test.c\00", align 1
@.str.15 = private unnamed_addr constant [28 x i8] c"Error parsing test options\0A\00", align 1
@.str.16 = private unnamed_addr constant [33 x i8] c"certs_dir = test_get_argument(0)\00", align 1
@certs_dir = internal global ptr null, align 8
@.str.17 = private unnamed_addr constant [52 x i8] c"root_f = test_mk_file_path(certs_dir, \22rootCA.pem\22)\00", align 1
@.str.18 = private unnamed_addr constant [11 x i8] c"rootCA.pem\00", align 1
@root_f = internal global ptr null, align 8
@.str.19 = private unnamed_addr constant [52 x i8] c"roots_f = test_mk_file_path(certs_dir, \22roots.pem\22)\00", align 1
@.str.20 = private unnamed_addr constant [10 x i8] c"roots.pem\00", align 1
@roots_f = internal global ptr null, align 8
@.str.21 = private unnamed_addr constant [60 x i8] c"untrusted_f = test_mk_file_path(certs_dir, \22untrusted.pem\22)\00", align 1
@.str.22 = private unnamed_addr constant [14 x i8] c"untrusted.pem\00", align 1
@untrusted_f = internal global ptr null, align 8
@.str.23 = private unnamed_addr constant [48 x i8] c"bad_f = test_mk_file_path(certs_dir, \22bad.pem\22)\00", align 1
@.str.24 = private unnamed_addr constant [8 x i8] c"bad.pem\00", align 1
@bad_f = internal global ptr null, align 8
@.str.25 = private unnamed_addr constant [52 x i8] c"req_f = test_mk_file_path(certs_dir, \22sm2-csr.pem\22)\00", align 1
@.str.26 = private unnamed_addr constant [12 x i8] c"sm2-csr.pem\00", align 1
@req_f = internal global ptr null, align 8
@.str.27 = private unnamed_addr constant [60 x i8] c"sroot_cert = test_mk_file_path(certs_dir, \22sroot-cert.pem\22)\00", align 1
@.str.28 = private unnamed_addr constant [15 x i8] c"sroot-cert.pem\00", align 1
@sroot_cert = internal global ptr null, align 8
@.str.29 = private unnamed_addr constant [54 x i8] c"ca_cert = test_mk_file_path(certs_dir, \22ca-cert.pem\22)\00", align 1
@.str.30 = private unnamed_addr constant [12 x i8] c"ca-cert.pem\00", align 1
@ca_cert = internal global ptr null, align 8
@.str.31 = private unnamed_addr constant [54 x i8] c"ee_cert = test_mk_file_path(certs_dir, \22ee-cert.pem\22)\00", align 1
@.str.32 = private unnamed_addr constant [12 x i8] c"ee-cert.pem\00", align 1
@ee_cert = internal global ptr null, align 8
@.str.33 = private unnamed_addr constant [29 x i8] c"test_alt_chains_cert_forgery\00", align 1
@.str.34 = private unnamed_addr constant [15 x i8] c"test_store_ctx\00", align 1
@.str.35 = private unnamed_addr constant [23 x i8] c"test_distinguishing_id\00", align 1
@.str.36 = private unnamed_addr constant [27 x i8] c"test_req_distinguishing_id\00", align 1
@.str.37 = private unnamed_addr constant [22 x i8] c"test_self_signed_good\00", align 1
@.str.38 = private unnamed_addr constant [21 x i8] c"test_self_signed_bad\00", align 1
@.str.39 = private unnamed_addr constant [23 x i8] c"test_self_signed_error\00", align 1
@.str.40 = private unnamed_addr constant [24 x i8] c"test_purpose_ssl_client\00", align 1
@.str.41 = private unnamed_addr constant [24 x i8] c"test_purpose_ssl_server\00", align 1
@.str.42 = private unnamed_addr constant [17 x i8] c"test_purpose_any\00", align 1

; Function Attrs: nounwind uwtable
define dso_local void @cleanup_tests() #0 {
  %1 = load ptr, ptr @root_f, align 8, !tbaa !4
  call void @CRYPTO_free(ptr noundef %1, ptr noundef @.str.14, i32 noundef 333)
  %2 = load ptr, ptr @roots_f, align 8, !tbaa !4
  call void @CRYPTO_free(ptr noundef %2, ptr noundef @.str.14, i32 noundef 334)
  %3 = load ptr, ptr @untrusted_f, align 8, !tbaa !4
  call void @CRYPTO_free(ptr noundef %3, ptr noundef @.str.14, i32 noundef 335)
  %4 = load ptr, ptr @bad_f, align 8, !tbaa !4
  call void @CRYPTO_free(ptr noundef %4, ptr noundef @.str.14, i32 noundef 336)
  %5 = load ptr, ptr @req_f, align 8, !tbaa !4
  call void @CRYPTO_free(ptr noundef %5, ptr noundef @.str.14, i32 noundef 337)
  %6 = load ptr, ptr @sroot_cert, align 8, !tbaa !4
  call void @CRYPTO_free(ptr noundef %6, ptr noundef @.str.14, i32 noundef 338)
  %7 = load ptr, ptr @ca_cert, align 8, !tbaa !4
  call void @CRYPTO_free(ptr noundef %7, ptr noundef @.str.14, i32 noundef 339)
  %8 = load ptr, ptr @ee_cert, align 8, !tbaa !4
  call void @CRYPTO_free(ptr noundef %8, ptr noundef @.str.14, i32 noundef 340)
  ret void
}

; Function Attrs: nounwind uwtable
define dso_local i32 @setup_tests() #0 {
  %1 = alloca i32, align 4
  %2 = call i32 @test_skip_common_options()
  %3 = icmp ne i32 %2, 0
  br i1 %3, label %5, label %4

4:                                                ; preds = %0
  call void (ptr, i32, ptr, ...) @test_error(ptr noundef @.str.14, i32 noundef 298, ptr noundef @.str.15)
  store i32 0, ptr %1, align 4
  br label %53

5:                                                ; preds = %0
  %6 = call ptr @test_get_argument(i64 noundef 0)
  store ptr %6, ptr @certs_dir, align 8, !tbaa !4
  %7 = call i32 @test_ptr(ptr noundef @.str.14, i32 noundef 302, ptr noundef @.str.16, ptr noundef %6)
  %8 = icmp ne i32 %7, 0
  br i1 %8, label %10, label %9

9:                                                ; preds = %5
  store i32 0, ptr %1, align 4
  br label %53

10:                                               ; preds = %5
  %11 = load ptr, ptr @certs_dir, align 8, !tbaa !4
  %12 = call ptr @test_mk_file_path(ptr noundef %11, ptr noundef @.str.18)
  store ptr %12, ptr @root_f, align 8, !tbaa !4
  %13 = call i32 @test_ptr(ptr noundef @.str.14, i32 noundef 305, ptr noundef @.str.17, ptr noundef %12)
  %14 = icmp ne i32 %13, 0
  br i1 %14, label %15, label %50

15:                                               ; preds = %10
  %16 = load ptr, ptr @certs_dir, align 8, !tbaa !4
  %17 = call ptr @test_mk_file_path(ptr noundef %16, ptr noundef @.str.20)
  store ptr %17, ptr @roots_f, align 8, !tbaa !4
  %18 = call i32 @test_ptr(ptr noundef @.str.14, i32 noundef 306, ptr noundef @.str.19, ptr noundef %17)
  %19 = icmp ne i32 %18, 0
  br i1 %19, label %20, label %50

20:                                               ; preds = %15
  %21 = load ptr, ptr @certs_dir, align 8, !tbaa !4
  %22 = call ptr @test_mk_file_path(ptr noundef %21, ptr noundef @.str.22)
  store ptr %22, ptr @untrusted_f, align 8, !tbaa !4
  %23 = call i32 @test_ptr(ptr noundef @.str.14, i32 noundef 307, ptr noundef @.str.21, ptr noundef %22)
  %24 = icmp ne i32 %23, 0
  br i1 %24, label %25, label %50

25:                                               ; preds = %20
  %26 = load ptr, ptr @certs_dir, align 8, !tbaa !4
  %27 = call ptr @test_mk_file_path(ptr noundef %26, ptr noundef @.str.24)
  store ptr %27, ptr @bad_f, align 8, !tbaa !4
  %28 = call i32 @test_ptr(ptr noundef @.str.14, i32 noundef 308, ptr noundef @.str.23, ptr noundef %27)
  %29 = icmp ne i32 %28, 0
  br i1 %29, label %30, label %50

30:                                               ; preds = %25
  %31 = load ptr, ptr @certs_dir, align 8, !tbaa !4
  %32 = call ptr @test_mk_file_path(ptr noundef %31, ptr noundef @.str.26)
  store ptr %32, ptr @req_f, align 8, !tbaa !4
  %33 = call i32 @test_ptr(ptr noundef @.str.14, i32 noundef 309, ptr noundef @.str.25, ptr noundef %32)
  %34 = icmp ne i32 %33, 0
  br i1 %34, label %35, label %50

35:                                               ; preds = %30
  %36 = load ptr, ptr @certs_dir, align 8, !tbaa !4
  %37 = call ptr @test_mk_file_path(ptr noundef %36, ptr noundef @.str.28)
  store ptr %37, ptr @sroot_cert, align 8, !tbaa !4
  %38 = call i32 @test_ptr(ptr noundef @.str.14, i32 noundef 310, ptr noundef @.str.27, ptr noundef %37)
  %39 = icmp ne i32 %38, 0
  br i1 %39, label %40, label %50

40:                                               ; preds = %35
  %41 = load ptr, ptr @certs_dir, align 8, !tbaa !4
  %42 = call ptr @test_mk_file_path(ptr noundef %41, ptr noundef @.str.30)
  store ptr %42, ptr @ca_cert, align 8, !tbaa !4
  %43 = call i32 @test_ptr(ptr noundef @.str.14, i32 noundef 311, ptr noundef @.str.29, ptr noundef %42)
  %44 = icmp ne i32 %43, 0
  br i1 %44, label %45, label %50

45:                                               ; preds = %40
  %46 = load ptr, ptr @certs_dir, align 8, !tbaa !4
  %47 = call ptr @test_mk_file_path(ptr noundef %46, ptr noundef @.str.32)
  store ptr %47, ptr @ee_cert, align 8, !tbaa !4
  %48 = call i32 @test_ptr(ptr noundef @.str.14, i32 noundef 312, ptr noundef @.str.31, ptr noundef %47)
  %49 = icmp ne i32 %48, 0
  br i1 %49, label %51, label %50

50:                                               ; preds = %45, %40, %35, %30, %25, %20, %15, %10
  br label %52

51:                                               ; preds = %45
  call void @add_test(ptr noundef @.str.33, ptr noundef @test_alt_chains_cert_forgery)
  call void @add_test(ptr noundef @.str.34, ptr noundef @test_store_ctx)
  call void @add_test(ptr noundef @.str.35, ptr noundef @test_distinguishing_id)
  call void @add_test(ptr noundef @.str.36, ptr noundef @test_req_distinguishing_id)
  call void @add_test(ptr noundef @.str.37, ptr noundef @test_self_signed_good)
  call void @add_test(ptr noundef @.str.38, ptr noundef @test_self_signed_bad)
  call void @add_test(ptr noundef @.str.39, ptr noundef @test_self_signed_error)
  call void @add_test(ptr noundef @.str.40, ptr noundef @test_purpose_ssl_client)
  call void @add_test(ptr noundef @.str.41, ptr noundef @test_purpose_ssl_server)
  call void @add_test(ptr noundef @.str.42, ptr noundef @test_purpose_any)
  store i32 1, ptr %1, align 4
  br label %53

52:                                               ; preds = %50
  call void @cleanup_tests()
  store i32 0, ptr %1, align 4
  br label %53

53:                                               ; preds = %52, %51, %9, %4
  %54 = load i32, ptr %1, align 4
  ret i32 %54
}