; Function Attrs: nounwind uwtable
define dso_local range(i32 0, 2) i32 @setup_tests() local_unnamed_addr #1 {
  %1 = tail call i32 @test_skip_common_options() #3
  %.not = icmp eq i32 %1, 0
  br i1 %.not, label %2, label %3

2:                                                ; preds = %0
  tail call void (ptr, i32, ptr, ...) @test_error(ptr noundef nonnull @.str.14, i32 noundef 298, ptr noundef nonnull @.str.15) #3
  br label %48

3:                                                ; preds = %0
  %4 = tail call ptr @test_get_argument(i64 noundef 0) #3
  store ptr %4, ptr @certs_dir, align 8, !tbaa !4
  %5 = tail call i32 @test_ptr(ptr noundef nonnull @.str.14, i32 noundef 302, ptr noundef nonnull @.str.16, ptr noundef %4) #3
  %.not1 = icmp eq i32 %5, 0
  br i1 %.not1, label %48, label %6

6:                                                ; preds = %3
  %7 = load ptr, ptr @certs_dir, align 8, !tbaa !4
  %8 = tail call ptr @test_mk_file_path(ptr noundef %7, ptr noundef nonnull @.str.18) #3
  store ptr %8, ptr @root_f, align 8, !tbaa !4
  %9 = tail call i32 @test_ptr(ptr noundef nonnull @.str.14, i32 noundef 305, ptr noundef nonnull @.str.17, ptr noundef %8) #3
  %.not2 = icmp eq i32 %9, 0
  br i1 %.not2, label %39, label %10

10:                                               ; preds = %6
  %11 = load ptr, ptr @certs_dir, align 8, !tbaa !4
  %12 = tail call ptr @test_mk_file_path(ptr noundef %11, ptr noundef nonnull @.str.20) #3
  store ptr %12, ptr @roots_f, align 8, !tbaa !4
  %13 = tail call i32 @test_ptr(ptr noundef nonnull @.str.14, i32 noundef 306, ptr noundef nonnull @.str.19, ptr noundef %12) #3
  %.not3 = icmp eq i32 %13, 0
  br i1 %.not3, label %39, label %14

14:                                               ; preds = %10
  %15 = load ptr, ptr @certs_dir, align 8, !tbaa !4
  %16 = tail call ptr @test_mk_file_path(ptr noundef %15, ptr noundef nonnull @.str.22) #3
  store ptr %16, ptr @untrusted_f, align 8, !tbaa !4
  %17 = tail call i32 @test_ptr(ptr noundef nonnull @.str.14, i32 noundef 307, ptr noundef nonnull @.str.21, ptr noundef %16) #3
  %.not4 = icmp eq i32 %17, 0
  br i1 %.not4, label %39, label %18

18:                                               ; preds = %14
  %19 = load ptr, ptr @certs_dir, align 8, !tbaa !4
  %20 = tail call ptr @test_mk_file_path(ptr noundef %19, ptr noundef nonnull @.str.24) #3
  store ptr %20, ptr @bad_f, align 8, !tbaa !4
  %21 = tail call i32 @test_ptr(ptr noundef nonnull @.str.14, i32 noundef 308, ptr noundef nonnull @.str.23, ptr noundef %20) #3
  %.not5 = icmp eq i32 %21, 0
  br i1 %.not5, label %39, label %22

22:                                               ; preds = %18
  %23 = load ptr, ptr @certs_dir, align 8, !tbaa !4
  %24 = tail call ptr @test_mk_file_path(ptr noundef %23, ptr noundef nonnull @.str.26) #3
  store ptr %24, ptr @req_f, align 8, !tbaa !4
  %25 = tail call i32 @test_ptr(ptr noundef nonnull @.str.14, i32 noundef 309, ptr noundef nonnull @.str.25, ptr noundef %24) #3
  %.not6 = icmp eq i32 %25, 0
  br i1 %.not6, label %39, label %26

26:                                               ; preds = %22
  %27 = load ptr, ptr @certs_dir, align 8, !tbaa !4
  %28 = tail call ptr @test_mk_file_path(ptr noundef %27, ptr noundef nonnull @.str.28) #3
  store ptr %28, ptr @sroot_cert, align 8, !tbaa !4
  %29 = tail call i32 @test_ptr(ptr noundef nonnull @.str.14, i32 noundef 310, ptr noundef nonnull @.str.27, ptr noundef %28) #3
  %.not7 = icmp eq i32 %29, 0
  br i1 %.not7, label %39, label %30

30:                                               ; preds = %26
  %31 = load ptr, ptr @certs_dir, align 8, !tbaa !4
  %32 = tail call ptr @test_mk_file_path(ptr noundef %31, ptr noundef nonnull @.str.30) #3
  store ptr %32, ptr @ca_cert, align 8, !tbaa !4
  %33 = tail call i32 @test_ptr(ptr noundef nonnull @.str.14, i32 noundef 311, ptr noundef nonnull @.str.29, ptr noundef %32) #3
  %.not8 = icmp eq i32 %33, 0
  br i1 %.not8, label %39, label %34

34:                                               ; preds = %30
  %35 = load ptr, ptr @certs_dir, align 8, !tbaa !4
  %36 = tail call ptr @test_mk_file_path(ptr noundef %35, ptr noundef nonnull @.str.32) #3
  store ptr %36, ptr @ee_cert, align 8, !tbaa !4
  %37 = tail call i32 @test_ptr(ptr noundef nonnull @.str.14, i32 noundef 312, ptr noundef nonnull @.str.31, ptr noundef %36) #3
  %.not9 = icmp eq i32 %37, 0
  br i1 %.not9, label %39, label %38

38:                                               ; preds = %34
  tail call void @add_test(ptr noundef nonnull @.str.33, ptr noundef nonnull @test_alt_chains_cert_forgery) #3
  tail call void @add_test(ptr noundef nonnull @.str.34, ptr noundef nonnull @test_store_ctx) #3
  tail call void @add_test(ptr noundef nonnull @.str.35, ptr noundef nonnull @test_distinguishing_id) #3
  tail call void @add_test(ptr noundef nonnull @.str.36, ptr noundef nonnull @test_req_distinguishing_id) #3
  tail call void @add_test(ptr noundef nonnull @.str.37, ptr noundef nonnull @test_self_signed_good) #3
  tail call void @add_test(ptr noundef nonnull @.str.38, ptr noundef nonnull @test_self_signed_bad) #3
  tail call void @add_test(ptr noundef nonnull @.str.39, ptr noundef nonnull @test_self_signed_error) #3
  tail call void @add_test(ptr noundef nonnull @.str.40, ptr noundef nonnull @test_purpose_ssl_client) #3
  tail call void @add_test(ptr noundef nonnull @.str.41, ptr noundef nonnull @test_purpose_ssl_server) #3
  tail call void @add_test(ptr noundef nonnull @.str.42, ptr noundef nonnull @test_purpose_any) #3
  br label %48

39:                                               ; preds = %6, %10, %14, %18, %22, %26, %30, %34
  %40 = load ptr, ptr @root_f, align 8, !tbaa !4
  tail call void @CRYPTO_free(ptr noundef %40, ptr noundef nonnull @.str.14, i32 noundef 333) #3
  %41 = load ptr, ptr @roots_f, align 8, !tbaa !4
  tail call void @CRYPTO_free(ptr noundef %41, ptr noundef nonnull @.str.14, i32 noundef 334) #3
  %42 = load ptr, ptr @untrusted_f, align 8, !tbaa !4
  tail call void @CRYPTO_free(ptr noundef %42, ptr noundef nonnull @.str.14, i32 noundef 335) #3
  %43 = load ptr, ptr @bad_f, align 8, !tbaa !4
  tail call void @CRYPTO_free(ptr noundef %43, ptr noundef nonnull @.str.14, i32 noundef 336) #3
  %44 = load ptr, ptr @req_f, align 8, !tbaa !4
  tail call void @CRYPTO_free(ptr noundef %44, ptr noundef nonnull @.str.14, i32 noundef 337) #3
  %45 = load ptr, ptr @sroot_cert, align 8, !tbaa !4
  tail call void @CRYPTO_free(ptr noundef %45, ptr noundef nonnull @.str.14, i32 noundef 338) #3
  %46 = load ptr, ptr @ca_cert, align 8, !tbaa !4
  tail call void @CRYPTO_free(ptr noundef %46, ptr noundef nonnull @.str.14, i32 noundef 339) #3
  %47 = load ptr, ptr @ee_cert, align 8, !tbaa !4
  tail call void @CRYPTO_free(ptr noundef %47, ptr noundef nonnull @.str.14, i32 noundef 340) #3
  br label %48

48:                                               ; preds = %3, %39, %38, %2
  %.0 = phi i32 [ 1, %38 ], [ 0, %39 ], [ 0, %2 ], [ 0, %3 ]
  ret i32 %.0
}